; ModuleID = '30/199.c'
source_filename = "30/199.c"
target datalayout = "e-m:e-p270:32:32-p271:32:32-p272:64:64-i64:64-f80:128-n8:16:32:64-S128"
target triple = "x86_64-pc-linux-gnu"

@.str = private unnamed_addr constant [3 x i8] c"%d\00", align 1
@.str.1 = private unnamed_addr constant [4 x i8] c"%d\0A\00", align 1

; Function Attrs: noinline nounwind uwtable
define dso_local void @main() #0 {
  %1 = alloca i32, align 4
  %2 = alloca i32, align 4
  %3 = alloca i32, align 4
  %4 = alloca [2 x i32], align 4
  store i32 0, i32* %2, align 4
  %5 = call i32 (i8*, ...) @__isoc99_scanf(i8* getelementptr inbounds ([3 x i8], [3 x i8]* @.str, i64 0, i64 0), i32* %1)
  store i32 1, i32* %3, align 4
  br label %6

6:                                                ; preds = %40, %0
  %7 = load i32, i32* %3, align 4
  %8 = load i32, i32* %1, align 4
  %9 = icmp sle i32 %7, %8
  br i1 %9, label %10, label %43

10:                                               ; preds = %6
  %11 = load i32, i32* %3, align 4
  %12 = srem i32 %11, 10
  %13 = getelementptr inbounds [2 x i32], [2 x i32]* %4, i64 0, i64 1
  store i32 %12, i32* %13, align 4
  %14 = load i32, i32* %3, align 4
  %15 = load i32, i32* %3, align 4
  %16 = srem i32 %15, 10
  %17 = sub nsw i32 %14, %16
  %18 = sdiv i32 %17, 10
  %19 = getelementptr inbounds [2 x i32], [2 x i32]* %4, i64 0, i64 0
  store i32 %18, i32* %19, align 4
  %20 = getelementptr inbounds [2 x i32], [2 x i32]* %4, i64 0, i64 1
  %21 = load i32, i32* %20, align 4
  %22 = icmp ne i32 %21, 7
  br i1 %22, label %23, label %39

23:                                               ; preds = %10
  %24 = getelementptr inbounds [2 x i32], [2 x i32]* %4, i64 0, i64 0
  %25 = load i32, i32* %24, align 4
  %26 = icmp ne i32 %25, 7
  br i1 %26, label %27, label %39

27:                                               ; preds = %23
  %28 = load i32, i32* %3, align 4
  %29 = srem i32 %28, 7
  %30 = icmp ne i32 %29, 0
  br i1 %30, label %31, label %39

31:                                               ; preds = %27
  %32 = load i32, i32* %2, align 4
  %33 = sitofp i32 %32 to double
  %34 = load i32, i32* %3, align 4
  %35 = sitofp i32 %34 to double
  %36 = call double @pow(double %35, double 2.000000e+00) #3
  %37 = fadd double %33, %36
  %38 = fptosi double %37 to i32
  store i32 %38, i32* %2, align 4
  br label %39

39:                                               ; preds = %31, %27, %23, %10
  br label %40

40:                                               ; preds = %39
  %41 = load i32, i32* %3, align 4
  %42 = add nsw i32 %41, 1
  store i32 %42, i32* %3, align 4
  br label %6

43:                                               ; preds = %6
  %44 = load i32, i32* %2, align 4
  %45 = call i32 (i8*, ...) @printf(i8* getelementptr inbounds ([4 x i8], [4 x i8]* @.str.1, i64 0, i64 0), i32 %44)
  ret void
}

declare dso_local i32 @__isoc99_scanf(i8*, ...) #1

; Function Attrs: nounwind
declare dso_local double @pow(double, double) #2

declare dso_local i32 @printf(i8*, ...) #1


!llvm.module.flags = !{!0}
!llvm.ident = !{!1}

!0 = !{i32 1, !"wchar_size", i32 4}
!1 = !{!"clang version 10.0.0-4ubuntu1 "}
